(dp0
F-7.75
(F-0.1412
F0.09624
tp1
sF-6.75
(F-0.1003
F0.08785
tp2
sF2.0
(F0.8871
F0.02215
tp3
sF3.0
(F1.0032
F0.01964
tp4
sF4.0
(F1.1188
F0.01726
tp5
sF5.0
(F1.2318
F0.01625
tp6
sF-5.75
(F-0.0371
F0.07846
tp7
sF1.0
(F0.765
F0.02557
tp8
sF8.0
(F1.4708
F0.02241
tp9
sF9.0
(F1.5083
F0.02779
tp10
sF10.0
(F1.5075
F0.03733
tp11
sF-4.25
(F0.1281
F0.0685
tp12
sF8.75
(F1.4987
F0.02674
tp13
sF0.75
(F0.7356
F0.02681
tp14
sF10.5
(F1.5042
F0.04346
tp15
sF4.5
(F1.1732
F0.01679
tp16
sF11.5
(F1.4784
F0.05907
tp17
sF5.5
(F1.2835
F0.01666
tp18
sF7.25
(F1.4455
F0.01628
tp19
sF0.5
(F0.7099
F0.03004
tp20
sF0.0
(F0.6364
F0.03014
tp21
sF8.25
(F1.47
F0.02495
tp22
sF6.5
(F1.3763
F0.01501
tp23
sF6.0
(F1.3308
F0.01479
tp24
sF7.5
(F1.4683
F0.01674
tp25
sF7.0
(F1.4227
F0.01581
tp26
sF9.75
(F1.5093
F0.0344
tp27
sF-7.5
(F-0.1337
F0.09432
tp28
sF1.75
(F0.8597
F0.02344
tp29
sF-3.75
(F0.1603
F0.05945
tp30
sF5.25
(F1.2581
F0.01639
tp31
sF11.75
(F1.4712
F0.06315
tp32
sF-6.5
(F-0.0862
F0.08554
tp33
sF-4.75
(F0.0515
F0.06939
tp34
sF1.5
(F0.8268
F0.02374
tp35
sF1.25
(F0.8026
F0.02675
tp36
sF9.25
(F1.5143
F0.02908
tp37
sF11.0
(F1.494
F0.0508
tp38
sF11.25
(F1.4859
F0.05496
tp39
sF-4.5
(F0.0862
F0.06861
tp40
sF4.25
(F1.1457
F0.01693
tp41
sF4.75
(F1.206
F0.01602
tp42
sF-3.5
(F0.1809
F0.05626
tp43
sF2.25
(F0.9169
F0.02146
tp44
sF5.75
(F1.3066
F0.01503
tp45
sF2.5
(F0.9477
F0.02185
tp46
sF6.25
(F1.3541
F0.01473
tp47
sF-3.25
(F0.2086
F0.05379
tp48
sF-2.75
(F0.2711
F0.04926
tp49
sF2.75
(F0.9748
F0.02019
tp50
sF8.5
(F1.4828
F0.02602
tp51
sF6.75
(F1.3997
F0.01538
tp52
sF-6.25
(F-0.0709
F0.08319
tp53
sF0.25
(F0.671
F0.02934
tp54
sF3.25
(F1.0307
F0.01898
tp55
sF-4.0
(F0.1548
F0.06536
tp56
sF7.75
(F1.4772
F0.0188
tp57
sF3.5
(F1.0632
F0.01841
tp58
sF12.0
(F1.4642
F0.06721
tp59
sF10.25
(F1.5065
F0.04029
tp60
sF3.75
(F0.9497
F0.00806
tp61
sF-7.25
(F-0.1246
F0.09233
tp62
sF10.75
(F1.4995
F0.04708
tp63
sF-8.0
(F-0.1487
F0.09831
tp64
sF-7.0
(F-0.113
F0.09008
tp65
sF-6.0
(F-0.0545
F0.08079
tp66
sF-5.0
(F0.025
F0.07134
tp67
sF-5.5
(F-0.018
F0.07605
tp68
sF-3.0
(F0.2396
F0.05145
tp69
sF-5.25
(F0.0023
F0.07367
tp70
s.