(dp0
F-9.75
(F-0.583
F0.10909
tp1
sF-9.5
(F-0.7037
F0.11447
tp2
sF2.0
(F0.1734
F0.01078
tp3
sF3.0
(F0.3624
F0.01103
tp4
sF4.0
(F0.4379
F0.01784
tp5
sF5.0
(F0.5404
F0.02585
tp6
sF-5.75
(F-0.6107
F0.03711
tp7
sF1.0
(F0.0859
F0.01026
tp8
sF-2.75
(F-0.335
F0.01089
tp9
sF8.0
(F0.7
F0.08885
tp10
sF-4.25
(F-0.4629
F0.01936
tp11
sF-2.5
(F-0.2163
F0.01134
tp12
sF-0.5
(F-0.0427
F0.01015
tp13
sF-2.25
(F-0.1948
F0.01103
tp14
sF4.5
(F0.4883
F0.02113
tp15
sF5.5
(F0.5895
F0.03284
tp16
sF7.25
(F0.706
F0.0737
tp17
sF-0.75
(F-0.0642
F0.0102
tp18
sF-8.5
(F-0.7208
F0.09688
tp19
sF-8.25
(F-0.6967
F0.09341
tp20
sF0.25
(F0.0213
F0.01013
tp21
sF7.5
(F0.6999
F0.07812
tp22
sF8.5
(F0.721
F0.09692
tp23
sF1.5
(F0.1297
F0.01046
tp24
sF9.75
(F0.5825
F0.10893
tp25
sF8.75
(F0.708
F0.10232
tp26
sF-7.5
(F-0.6995
F0.07812
tp27
sF-1.25
(F-0.1078
F0.01034
tp28
sF1.75
(F0.1516
F0.0106
tp29
sF5.25
(F0.5658
F0.02891
tp30
sF9.0
(F0.6956
F0.1068
tp31
sF7.0
(F0.6893
F0.06864
tp32
sF-4.75
(F-0.5137
F0.02413
tp33
sF-1.5
(F-0.1297
F0.01046
tp34
sF9.5
(F0.5989
F0.10492
tp35
sF-1.75
(F-0.1516
F0.0106
tp36
sF-8.75
(F-0.7078
F0.10227
tp37
sF0.0
(F0.0
F0.01012
tp38
sF-5.5
(F-0.5895
F0.03283
tp39
sF-4.5
(F-0.4883
F0.02113
tp40
sF-9.0
(F-0.6952
F0.10675
tp41
sF1.25
(F0.1078
F0.01034
tp42
sF8.25
(F0.6973
F0.09343
tp43
sF4.75
(F0.5137
F0.02414
tp44
sF9.25
(F0.6941
F0.11091
tp45
sF-3.25
(F-0.3789
F0.0119
tp46
sF2.25
(F0.1949
F0.01102
tp47
sF4.25
(F0.4628
F0.01936
tp48
sF5.75
(F0.6108
F0.03711
tp49
sF2.5
(F0.2162
F0.01134
tp50
sF-3.5
(F-0.391
F0.01504
tp51
sF-3.75
(F-0.4139
F0.01637
tp52
sF2.75
(F0.335
F0.01089
tp53
sF-9.25
(F-0.6934
F0.11087
tp54
sF0.5
(F0.0427
F0.01015
tp55
sF6.75
(F0.6843
F0.06381
tp56
sF-6.25
(F-0.6605
F0.05609
tp57
sF-0.25
(F-0.0213
F0.01013
tp58
sF3.25
(F0.3788
F0.0119
tp59
sF-4.0
(F-0.4379
F0.01784
tp60
sF7.75
(F0.7174
F0.08269
tp61
sF3.5
(F0.3909
F0.01504
tp62
sF-7.75
(F-0.7174
F0.08268
tp63
sF3.75
(F0.4138
F0.01637
tp64
sF0.75
(F0.0642
F0.0102
tp65
sF-7.25
(F-0.7061
F0.0737
tp66
sF-1.0
(F-0.0859
F0.01026
tp67
sF-10.0
(F-0.5661
F0.11269
tp68
sF-6.75
(F-0.6168
F0.05155
tp69
sF-8.0
(F-0.6997
F0.08881
tp70
sF-7.0
(F-0.6891
F0.06863
tp71
sF-6.0
(F-0.632
F0.0434
tp72
sF-5.0
(F-0.5404
F0.02585
tp73
sF-6.5
(F-0.6741
F0.05985
tp74
sF-3.0
(F-0.3625
F0.01103
tp75
sF-2.0
(F-0.1733
F0.01079
tp76
sF-5.25
(F-0.5658
F0.0289
tp77
s.